; Function Attrs: mustprogress nofree norecurse nosync nounwind willreturn memory(argmem: readwrite) uwtable
define internal noundef zeroext i1 @"_ZNSt17_Function_handlerIFviEZN6hermes2vm7RuntimeC1ESt10shared_ptrINS2_15StorageProviderEERKNS2_13RuntimeConfigEE3$_0E10_M_managerERSt9_Any_dataRKSC_St18_Manager_operation"(ptr nocapture noundef nonnull writeonly align 8 dereferenceable(16) %__dest, ptr noundef nonnull align 8 dereferenceable(16) %__source, i32 noundef %__op) #12 align 2 {
entry:
  switch i32 %__op, label %sw.epilog [
    i32 1, label %sw.bb
    i32 0, label %sw.bb.i
    i32 2, label %sw.bb4.i
  ]

sw.bb:                                            ; preds = %entry
  store ptr %__source, ptr %__dest, align 8
  br label %sw.epilog

sw.bb.i:                                          ; preds = %entry
  store ptr null, ptr %__dest, align 8
  br label %sw.epilog

sw.bb4.i:                                         ; preds = %entry
  %__source.val = load i64, ptr %__source, align 8
  store i64 %__source.val, ptr %__dest, align 8
  br label %sw.epilog

sw.epilog:                                        ; preds = %entry, %sw.bb4.i, %sw.bb.i, %sw.bb
  ret i1 false
}